target datalayout = "e-m:e-p270:32:32-p271:32:32-p272:64:64-i64:64-i128:128-f80:128-n8:16:32:64-S128"
target triple = "x86_64-pc-linux-gnu"

%struct._object = type { %union.anon, ptr }
%union.anon = type { i64 }
%struct.PyVarObject = type { %struct._object, i64 }
%struct._typeobject = type { %struct.PyVarObject, ptr, i64, i64, ptr, i64, ptr, ptr, ptr, ptr, ptr, ptr, ptr, ptr, ptr, ptr, ptr, ptr, ptr, i64, ptr, ptr, ptr, ptr, i64, ptr, ptr, ptr, ptr, ptr, ptr, ptr, ptr, ptr, i64, ptr, ptr, ptr, ptr, ptr, ptr, ptr, ptr, ptr, ptr, ptr, i32, ptr, ptr, i8, i16 }

@.str.5 = private unnamed_addr constant [7 x i8] c"decode\00", align 1
@.str.43 = private unnamed_addr constant [4 x i8] c"str\00", align 1
@PyExc_ValueError = external global ptr, align 8
@.str.44 = private unnamed_addr constant [24 x i8] c"embedded null character\00", align 1
@.str.48 = private unnamed_addr constant [20 x i8] c"argument 'encoding'\00", align 1
@.str.49 = private unnamed_addr constant [18 x i8] c"argument 'errors'\00", align 1

; Function Attrs: inlinehint nounwind uwtable
define internal i64 @Py_SIZE(ptr noundef %0) #3 {
  %2 = alloca ptr, align 8
  store ptr %0, ptr %2, align 8, !tbaa !4
  %3 = load ptr, ptr %2, align 8, !tbaa !4
  %4 = getelementptr inbounds nuw %struct.PyVarObject, ptr %3, i32 0, i32 1
  %5 = load i64, ptr %4, align 8, !tbaa !32
  ret i64 %5
}

; Function Attrs: nounwind uwtable
define internal ptr @_codecs_decode_impl(ptr noundef %0, ptr noundef %1, ptr noundef %2, ptr noundef %3) #0 {
  %5 = alloca ptr, align 8
  %6 = alloca ptr, align 8
  %7 = alloca ptr, align 8
  %8 = alloca ptr, align 8
  store ptr %0, ptr %5, align 8, !tbaa !4
  store ptr %1, ptr %6, align 8, !tbaa !4
  store ptr %2, ptr %7, align 8, !tbaa !9
  store ptr %3, ptr %8, align 8, !tbaa !9
  %9 = load ptr, ptr %7, align 8, !tbaa !9
  %10 = icmp eq ptr %9, null
  br i1 %10, label %11, label %13

11:                                               ; preds = %4
  %12 = call ptr @PyUnicode_GetDefaultEncoding()
  store ptr %12, ptr %7, align 8, !tbaa !9
  br label %13

13:                                               ; preds = %11, %4
  %14 = load ptr, ptr %6, align 8, !tbaa !4
  %15 = load ptr, ptr %7, align 8, !tbaa !9
  %16 = load ptr, ptr %8, align 8, !tbaa !9
  %17 = call ptr @PyCodec_Decode(ptr noundef %14, ptr noundef %15, ptr noundef %16)
  ret ptr %17
}

; Function Attrs: inlinehint nounwind uwtable
define internal i32 @PyType_HasFeature(ptr noundef %0, i64 noundef %1) #3 {
  %3 = alloca ptr, align 8
  %4 = alloca i64, align 8
  %5 = alloca i64, align 8
  store ptr %0, ptr %3, align 8, !tbaa !20
  store i64 %1, ptr %4, align 8, !tbaa !11
  call void @llvm.lifetime.start.p0(i64 8, ptr %5) #6
  %6 = load ptr, ptr %3, align 8, !tbaa !20
  %7 = getelementptr inbounds nuw %struct._typeobject, ptr %6, i32 0, i32 19
  %8 = load i64, ptr %7, align 8, !tbaa !22
  store i64 %8, ptr %5, align 8, !tbaa !11
  %9 = load i64, ptr %5, align 8, !tbaa !11
  %10 = load i64, ptr %4, align 8, !tbaa !11
  %11 = and i64 %9, %10
  %12 = icmp ne i64 %11, 0
  %13 = zext i1 %12 to i32
  call void @llvm.lifetime.end.p0(i64 8, ptr %5) #6
  ret i32 %13
}

; Function Attrs: inlinehint nounwind uwtable
define internal ptr @_Py_TYPE(ptr noundef %0) #3 {
  %2 = alloca ptr, align 8
  store ptr %0, ptr %2, align 8, !tbaa !4
  %3 = load ptr, ptr %2, align 8, !tbaa !4
  %4 = getelementptr inbounds nuw %struct._object, ptr %3, i32 0, i32 1
  %5 = load ptr, ptr %4, align 8, !tbaa !30
  ret ptr %5
}

; Function Attrs: inlinehint nounwind uwtable
define internal i64 @PyTuple_GET_SIZE(ptr noundef %0) #3 {
  %2 = alloca ptr, align 8
  %3 = alloca ptr, align 8
  store ptr %0, ptr %2, align 8, !tbaa !4
  call void @llvm.lifetime.start.p0(i64 8, ptr %3) #6
  %4 = load ptr, ptr %2, align 8, !tbaa !4
  store ptr %4, ptr %3, align 8, !tbaa !31
  %5 = load ptr, ptr %3, align 8, !tbaa !31
  %6 = call i64 @Py_SIZE(ptr noundef %5)
  call void @llvm.lifetime.end.p0(i64 8, ptr %3) #6
  ret i64 %6
}

; Function Attrs: nounwind uwtable
define internal ptr @_codecs_decode(ptr noundef %0, ptr noundef %1, i64 noundef %2, ptr noundef %3) #0 {
  %5 = alloca ptr, align 8
  %6 = alloca ptr, align 8
  %7 = alloca ptr, align 8
  %8 = alloca i64, align 8
  %9 = alloca ptr, align 8
  %10 = alloca ptr, align 8
  %11 = alloca [3 x ptr], align 16
  %12 = alloca i64, align 8
  %13 = alloca ptr, align 8
  %14 = alloca ptr, align 8
  %15 = alloca ptr, align 8
  %16 = alloca i64, align 8
  %17 = alloca i32, align 4
  %18 = alloca i64, align 8
  store ptr %0, ptr %6, align 8, !tbaa !4
  store ptr %1, ptr %7, align 8, !tbaa !13
  store i64 %2, ptr %8, align 8, !tbaa !11
  store ptr %3, ptr %9, align 8, !tbaa !4
  call void @llvm.lifetime.start.p0(i64 8, ptr %10) #6
  store ptr null, ptr %10, align 8, !tbaa !4
  call void @llvm.lifetime.start.p0(i64 24, ptr %11) #6
  call void @llvm.lifetime.start.p0(i64 8, ptr %12) #6
  %19 = load i64, ptr %8, align 8, !tbaa !11
  %20 = load ptr, ptr %9, align 8, !tbaa !4
  %21 = icmp ne ptr %20, null
  br i1 %21, label %22, label %25

22:                                               ; preds = %4
  %23 = load ptr, ptr %9, align 8, !tbaa !4
  %24 = call i64 @PyTuple_GET_SIZE(ptr noundef %23)
  br label %26

25:                                               ; preds = %4
  br label %26

26:                                               ; preds = %25, %22
  %27 = phi i64 [ %24, %22 ], [ 0, %25 ]
  %28 = add i64 %19, %27
  %29 = sub i64 %28, 1
  store i64 %29, ptr %12, align 8, !tbaa !11
  call void @llvm.lifetime.start.p0(i64 8, ptr %13) #6
  call void @llvm.lifetime.start.p0(i64 8, ptr %14) #6
  store ptr null, ptr %14, align 8, !tbaa !9
  call void @llvm.lifetime.start.p0(i64 8, ptr %15) #6
  store ptr null, ptr %15, align 8, !tbaa !9
  %30 = load ptr, ptr %9, align 8, !tbaa !4
  %31 = icmp eq ptr %30, null
  br i1 %31, label %32, label %43

32:                                               ; preds = %26
  %33 = load i64, ptr %8, align 8, !tbaa !11
  %34 = icmp sle i64 1, %33
  br i1 %34, label %35, label %43

35:                                               ; preds = %32
  %36 = load i64, ptr %8, align 8, !tbaa !11
  %37 = icmp sle i64 %36, 3
  br i1 %37, label %38, label %43

38:                                               ; preds = %35
  %39 = load ptr, ptr %7, align 8, !tbaa !13
  %40 = icmp ne ptr %39, null
  br i1 %40, label %41, label %43

41:                                               ; preds = %38
  %42 = load ptr, ptr %7, align 8, !tbaa !13
  br label %49

43:                                               ; preds = %38, %35, %32, %26
  %44 = load ptr, ptr %7, align 8, !tbaa !13
  %45 = load i64, ptr %8, align 8, !tbaa !11
  %46 = load ptr, ptr %9, align 8, !tbaa !4
  %47 = getelementptr inbounds [3 x ptr], ptr %11, i64 0, i64 0
  %48 = call ptr @_PyArg_UnpackKeywords(ptr noundef %44, i64 noundef %45, ptr noundef null, ptr noundef %46, ptr noundef @_codecs_decode._parser, i32 noundef 1, i32 noundef 3, i32 noundef 0, i32 noundef 0, ptr noundef %47)
  br label %49

49:                                               ; preds = %43, %41
  %50 = phi ptr [ %42, %41 ], [ %48, %43 ]
  store ptr %50, ptr %7, align 8, !tbaa !13
  %51 = load ptr, ptr %7, align 8, !tbaa !13
  %52 = icmp ne ptr %51, null
  br i1 %52, label %54, label %53

53:                                               ; preds = %49
  br label %134

54:                                               ; preds = %49
  %55 = load ptr, ptr %7, align 8, !tbaa !13
  %56 = getelementptr ptr, ptr %55, i64 0
  %57 = load ptr, ptr %56, align 8, !tbaa !4
  store ptr %57, ptr %13, align 8, !tbaa !4
  %58 = load i64, ptr %12, align 8, !tbaa !11
  %59 = icmp ne i64 %58, 0
  br i1 %59, label %61, label %60

60:                                               ; preds = %54
  br label %128

61:                                               ; preds = %54
  %62 = load ptr, ptr %7, align 8, !tbaa !13
  %63 = getelementptr ptr, ptr %62, i64 1
  %64 = load ptr, ptr %63, align 8, !tbaa !4
  %65 = icmp ne ptr %64, null
  br i1 %65, label %66, label %101

66:                                               ; preds = %61
  %67 = load ptr, ptr %7, align 8, !tbaa !13
  %68 = getelementptr ptr, ptr %67, i64 1
  %69 = load ptr, ptr %68, align 8, !tbaa !4
  %70 = call ptr @_Py_TYPE(ptr noundef %69)
  %71 = call i32 @PyType_HasFeature(ptr noundef %70, i64 noundef 268435456)
  %72 = icmp ne i32 %71, 0
  br i1 %72, label %77, label %73

73:                                               ; preds = %66
  %74 = load ptr, ptr %7, align 8, !tbaa !13
  %75 = getelementptr ptr, ptr %74, i64 1
  %76 = load ptr, ptr %75, align 8, !tbaa !4
  call void @_PyArg_BadArgument(ptr noundef @.str.5, ptr noundef @.str.48, ptr noundef @.str.43, ptr noundef %76)
  br label %134

77:                                               ; preds = %66
  call void @llvm.lifetime.start.p0(i64 8, ptr %16) #6
  %78 = load ptr, ptr %7, align 8, !tbaa !13
  %79 = getelementptr ptr, ptr %78, i64 1
  %80 = load ptr, ptr %79, align 8, !tbaa !4
  %81 = call ptr @PyUnicode_AsUTF8AndSize(ptr noundef %80, ptr noundef %16)
  store ptr %81, ptr %14, align 8, !tbaa !9
  %82 = load ptr, ptr %14, align 8, !tbaa !9
  %83 = icmp eq ptr %82, null
  br i1 %83, label %84, label %85

84:                                               ; preds = %77
  store i32 2, ptr %17, align 4
  br label %98

85:                                               ; preds = %77
  %86 = load ptr, ptr %14, align 8, !tbaa !9
  %87 = call i64 @strlen(ptr noundef %86) #7
  %88 = load i64, ptr %16, align 8, !tbaa !11
  %89 = icmp ne i64 %87, %88
  br i1 %89, label %90, label %92

90:                                               ; preds = %85
  %91 = load ptr, ptr @PyExc_ValueError, align 8, !tbaa !4
  call void @PyErr_SetString(ptr noundef %91, ptr noundef @.str.44)
  store i32 2, ptr %17, align 4
  br label %98

92:                                               ; preds = %85
  %93 = load i64, ptr %12, align 8, !tbaa !11
  %94 = add i64 %93, -1
  store i64 %94, ptr %12, align 8, !tbaa !11
  %95 = icmp ne i64 %94, 0
  br i1 %95, label %97, label %96

96:                                               ; preds = %92
  store i32 3, ptr %17, align 4
  br label %98

97:                                               ; preds = %92
  store i32 0, ptr %17, align 4
  br label %98

98:                                               ; preds = %96, %90, %84, %97
  call void @llvm.lifetime.end.p0(i64 8, ptr %16) #6
  %99 = load i32, ptr %17, align 4
  switch i32 %99, label %136 [
    i32 0, label %100
    i32 3, label %128
    i32 2, label %134
  ]

100:                                              ; preds = %98
  br label %101

101:                                              ; preds = %100, %61
  %102 = load ptr, ptr %7, align 8, !tbaa !13
  %103 = getelementptr ptr, ptr %102, i64 2
  %104 = load ptr, ptr %103, align 8, !tbaa !4
  %105 = call ptr @_Py_TYPE(ptr noundef %104)
  %106 = call i32 @PyType_HasFeature(ptr noundef %105, i64 noundef 268435456)
  %107 = icmp ne i32 %106, 0
  br i1 %107, label %112, label %108

108:                                              ; preds = %101
  %109 = load ptr, ptr %7, align 8, !tbaa !13
  %110 = getelementptr ptr, ptr %109, i64 2
  %111 = load ptr, ptr %110, align 8, !tbaa !4
  call void @_PyArg_BadArgument(ptr noundef @.str.5, ptr noundef @.str.49, ptr noundef @.str.43, ptr noundef %111)
  br label %134

112:                                              ; preds = %101
  %113 = load ptr, ptr %7, align 8, !tbaa !13
  %114 = getelementptr ptr, ptr %113, i64 2
  %115 = load ptr, ptr %114, align 8, !tbaa !4
  %116 = call ptr @PyUnicode_AsUTF8AndSize(ptr noundef %115, ptr noundef %18)
  store ptr %116, ptr %15, align 8, !tbaa !9
  %117 = load ptr, ptr %15, align 8, !tbaa !9
  %118 = icmp eq ptr %117, null
  br i1 %118, label %119, label %120

119:                                              ; preds = %112
  br label %134

120:                                              ; preds = %112
  %121 = load ptr, ptr %15, align 8, !tbaa !9
  %122 = call i64 @strlen(ptr noundef %121) #7
  %123 = load i64, ptr %18, align 8, !tbaa !11
  %124 = icmp ne i64 %122, %123
  br i1 %124, label %125, label %127

125:                                              ; preds = %120
  %126 = load ptr, ptr @PyExc_ValueError, align 8, !tbaa !4
  call void @PyErr_SetString(ptr noundef %126, ptr noundef @.str.44)
  br label %134

127:                                              ; preds = %120
  br label %128

128:                                              ; preds = %127, %98, %60
  %129 = load ptr, ptr %6, align 8, !tbaa !4
  %130 = load ptr, ptr %13, align 8, !tbaa !4
  %131 = load ptr, ptr %14, align 8, !tbaa !9
  %132 = load ptr, ptr %15, align 8, !tbaa !9
  %133 = call ptr @_codecs_decode_impl(ptr noundef %129, ptr noundef %130, ptr noundef %131, ptr noundef %132)
  store ptr %133, ptr %10, align 8, !tbaa !4
  br label %134

134:                                              ; preds = %128, %98, %125, %119, %108, %73, %53
  %135 = load ptr, ptr %10, align 8, !tbaa !4
  store ptr %135, ptr %5, align 8
  store i32 1, ptr %17, align 4
  br label %136

136:                                              ; preds = %134, %98
  call void @llvm.lifetime.end.p0(i64 8, ptr %15) #6
  call void @llvm.lifetime.end.p0(i64 8, ptr %14) #6
  call void @llvm.lifetime.end.p0(i64 8, ptr %13) #6
  call void @llvm.lifetime.end.p0(i64 8, ptr %12) #6
  call void @llvm.lifetime.end.p0(i64 24, ptr %11) #6
  call void @llvm.lifetime.end.p0(i64 8, ptr %10) #6
  %137 = load ptr, ptr %5, align 8
  ret ptr %137
}